; ModuleID = 'source-C-CXX/28/1220.c'
source_filename = "source-C-CXX/28/1220.c"
target datalayout = "e-m:e-p270:32:32-p271:32:32-p272:64:64-i64:64-f80:128-n8:16:32:64-S128"
target triple = "x86_64-pc-linux-gnu"

@.str = private unnamed_addr constant [3 x i8] c"%d\00", align 1
@.str.1 = private unnamed_addr constant [7 x i8] c"%.3lf\0A\00", align 1

; Function Attrs: nofree nounwind sspstrong uwtable
define dso_local i32 @main() local_unnamed_addr #0 {
  %1 = alloca i32, align 4
  %2 = alloca [10000 x i32], align 16
  %3 = bitcast i32* %1 to i8*
  call void @llvm.lifetime.start.p0i8(i64 4, i8* nonnull %3) #3
  %4 = bitcast [10000 x i32]* %2 to i8*
  call void @llvm.lifetime.start.p0i8(i64 40000, i8* nonnull %4) #3
  %5 = call i32 (i8*, ...) @__isoc99_scanf(i8* getelementptr inbounds ([3 x i8], [3 x i8]* @.str, i64 0, i64 0), i32* nonnull %1)
  %6 = load i32, i32* %1, align 4, !tbaa !5
  %7 = icmp slt i32 %6, 1
  br i1 %7, label %54, label %8

8:                                                ; preds = %0, %47
  %9 = phi i64 [ %50, %47 ], [ 1, %0 ]
  %10 = getelementptr inbounds [10000 x i32], [10000 x i32]* %2, i64 0, i64 %9
  %11 = call i32 (i8*, ...) @__isoc99_scanf(i8* getelementptr inbounds ([3 x i8], [3 x i8]* @.str, i64 0, i64 0), i32* nonnull %10)
  %12 = load i32, i32* %10, align 4, !tbaa !5
  %13 = icmp slt i32 %12, 1
  br i1 %13, label %47, label %14

14:                                               ; preds = %8
  %15 = and i32 %12, 1
  %16 = icmp eq i32 %12, 1
  br i1 %16, label %36, label %17

17:                                               ; preds = %14
  %18 = and i32 %12, -2
  br label %19

19:                                               ; preds = %19, %17
  %20 = phi double [ 0.000000e+00, %17 ], [ %33, %19 ]
  %21 = phi i32 [ 2, %17 ], [ %32, %19 ]
  %22 = phi i32 [ 1, %17 ], [ %27, %19 ]
  %23 = phi i32 [ %18, %17 ], [ %34, %19 ]
  %24 = sitofp i32 %21 to double
  %25 = sitofp i32 %22 to double
  %26 = fdiv double %24, %25
  %27 = add nsw i32 %21, %22
  %28 = fadd double %20, %26
  %29 = sitofp i32 %27 to double
  %30 = sitofp i32 %21 to double
  %31 = fdiv double %29, %30
  %32 = add nsw i32 %27, %21
  %33 = fadd double %28, %31
  %34 = add i32 %23, -2
  %35 = icmp eq i32 %34, 0
  br i1 %35, label %36, label %19, !llvm.loop !9

36:                                               ; preds = %19, %14
  %37 = phi double [ undef, %14 ], [ %33, %19 ]
  %38 = phi double [ 0.000000e+00, %14 ], [ %33, %19 ]
  %39 = phi i32 [ 2, %14 ], [ %32, %19 ]
  %40 = phi i32 [ 1, %14 ], [ %27, %19 ]
  %41 = icmp eq i32 %15, 0
  br i1 %41, label %47, label %42

42:                                               ; preds = %36
  %43 = sitofp i32 %39 to double
  %44 = sitofp i32 %40 to double
  %45 = fdiv double %43, %44
  %46 = fadd double %38, %45
  br label %47

47:                                               ; preds = %42, %36, %8
  %48 = phi double [ 0.000000e+00, %8 ], [ %37, %36 ], [ %46, %42 ]
  %49 = call i32 (i8*, ...) @printf(i8* nonnull dereferenceable(1) getelementptr inbounds ([7 x i8], [7 x i8]* @.str.1, i64 0, i64 0), double %48)
  %50 = add nuw nsw i64 %9, 1
  %51 = load i32, i32* %1, align 4, !tbaa !5
  %52 = sext i32 %51 to i64
  %53 = icmp slt i64 %9, %52
  br i1 %53, label %8, label %54, !llvm.loop !11

54:                                               ; preds = %47, %0
  call void @llvm.lifetime.end.p0i8(i64 40000, i8* nonnull %4) #3
  call void @llvm.lifetime.end.p0i8(i64 4, i8* nonnull %3) #3
  ret i32 0
}

; Function Attrs: argmemonly mustprogress nofree nosync nounwind willreturn
declare void @llvm.lifetime.start.p0i8(i64 immarg, i8* nocapture) #1

; Function Attrs: nofree nounwind
declare noundef i32 @__isoc99_scanf(i8* nocapture noundef readonly, ...) local_unnamed_addr #2

; Function Attrs: nofree nounwind
declare noundef i32 @printf(i8* nocapture noundef readonly, ...) local_unnamed_addr #2

; Function Attrs: argmemonly mustprogress nofree nosync nounwind willreturn
declare void @llvm.lifetime.end.p0i8(i64 immarg, i8* nocapture) #1


!llvm.module.flags = !{!0, !1, !2, !3}
!llvm.ident = !{!4}

!0 = !{i32 1, !"wchar_size", i32 4}
!1 = !{i32 7, !"PIC Level", i32 2}
!2 = !{i32 7, !"PIE Level", i32 2}
!3 = !{i32 7, !"uwtable", i32 1}
!4 = !{!"clang version 13.0.0"}
!5 = !{!6, !6, i64 0}
!6 = !{!"int", !7, i64 0}
!7 = !{!"omnipotent char", !8, i64 0}
!8 = !{!"Simple C/C++ TBAA"}
!9 = distinct !{!9, !10}
!10 = !{!"llvm.loop.mustprogress"}
!11 = distinct !{!11, !10}
